; Function Attrs: nounwind uwtable
define dso_local void @Curl_cf_http_proxy_get_host(ptr noundef readonly captures(none) %0, ptr noundef %1, ptr noundef %2, ptr noundef %3, ptr noundef %4) #2 {
  %6 = getelementptr inbounds nuw i8, ptr %0, i64 36
  %7 = load i8, ptr %6, align 4
  %8 = and i8 %7, 1
  %.not = icmp eq i8 %8, 0
  br i1 %.not, label %9, label %20

9:                                                ; preds = %5
  %10 = getelementptr inbounds nuw i8, ptr %0, i64 24
  %11 = load ptr, ptr %10, align 8
  %12 = getelementptr inbounds nuw i8, ptr %11, i64 216
  %13 = load ptr, ptr %12, align 8
  store ptr %13, ptr %2, align 8
  %14 = load ptr, ptr %10, align 8
  %15 = getelementptr inbounds nuw i8, ptr %14, i64 224
  %16 = load ptr, ptr %15, align 8
  store ptr %16, ptr %3, align 8
  %17 = load ptr, ptr %10, align 8
  %18 = getelementptr inbounds nuw i8, ptr %17, i64 232
  %19 = load i32, ptr %18, align 8
  store i32 %19, ptr %4, align 4
  br label %26

20:                                               ; preds = %5
  %21 = getelementptr inbounds nuw i8, ptr %0, i64 8
  %22 = load ptr, ptr %21, align 8
  %23 = load ptr, ptr %22, align 8
  %24 = getelementptr inbounds nuw i8, ptr %23, i64 40
  %25 = load ptr, ptr %24, align 8
  tail call void %25(ptr noundef nonnull %22, ptr noundef %1, ptr noundef %2, ptr noundef %3, ptr noundef %4) #5
  br label %26

26:                                               ; preds = %20, %9
  ret void
}